; Function Attrs: mustprogress uwtable
define void @_ZNK5faiss20IndexBinaryMultiHash6searchElPKhlPiPlPKNS_16SearchParametersE(ptr noundef nonnull align 8 dereferenceable(84) %0, i64 noundef %1, ptr noundef %2, i64 noundef %3, ptr noundef %4, ptr noundef %5, ptr noundef readnone %6) unnamed_addr #2 align 2 personality ptr @__gxx_personality_v0 {
  %8 = alloca i64, align 8
  %9 = alloca ptr, align 8
  %10 = alloca i64, align 8
  %11 = alloca ptr, align 8
  %12 = alloca ptr, align 8
  %13 = alloca %"class.std::__cxx11::basic_string", align 8
  %14 = alloca %"class.std::__cxx11::basic_string", align 8
  %15 = alloca i64, align 8
  %16 = alloca i64, align 8
  %17 = alloca i64, align 8
  %18 = alloca i32, align 4
  %19 = tail call i32 @__kmpc_global_thread_num(ptr nonnull @4)
  store i64 %1, ptr %8, align 8
  store ptr %2, ptr %9, align 8
  store i64 %3, ptr %10, align 8
  store ptr %4, ptr %11, align 8
  store ptr %5, ptr %12, align 8
  %.not = icmp eq ptr %6, null
  br i1 %.not, label %35, label %20

20:                                               ; preds = %7
  call void @_ZNSt7__cxx1112basic_stringIcSt11char_traitsIcESaIcEEC1Ev(ptr noundef nonnull align 8 dereferenceable(32) %13) #12
  %21 = call i32 (ptr, i64, ptr, ...) @snprintf(ptr noundef null, i64 noundef 0, ptr noundef nonnull @.str.2, ptr noundef nonnull @.str.3) #12
  %22 = add nsw i32 %21, 1
  %23 = sext i32 %22 to i64
  invoke void @_ZNSt7__cxx1112basic_stringIcSt11char_traitsIcESaIcEE6resizeEm(ptr noundef nonnull align 8 dereferenceable(32) %13, i64 noundef %23)
          to label %24 unwind label %31

24:                                               ; preds = %20
  %25 = invoke noundef nonnull align 1 dereferenceable(1) ptr @_ZNSt7__cxx1112basic_stringIcSt11char_traitsIcESaIcEEixEm(ptr noundef nonnull align 8 dereferenceable(32) %13, i64 noundef 0)
          to label %26 unwind label %31

26:                                               ; preds = %24
  %27 = call noundef i64 @_ZNKSt7__cxx1112basic_stringIcSt11char_traitsIcESaIcEE4sizeEv(ptr noundef nonnull align 8 dereferenceable(32) %13) #12
  %28 = call i32 (ptr, i64, ptr, ...) @snprintf(ptr noundef nonnull %25, i64 noundef %27, ptr noundef nonnull @.str.2, ptr noundef nonnull @.str.3) #12
  %29 = call ptr @__cxa_allocate_exception(i64 40) #12
  invoke void @_ZN5faiss14FaissExceptionC1ERKNSt7__cxx1112basic_stringIcSt11char_traitsIcESaIcEEEPKcSA_i(ptr noundef nonnull align 8 dereferenceable(40) %29, ptr noundef nonnull align 8 dereferenceable(32) %13, ptr noundef nonnull @__PRETTY_FUNCTION__._ZNK5faiss20IndexBinaryMultiHash6searchElPKhlPiPlPKNS_16SearchParametersE, ptr noundef nonnull @.str.4, i32 noundef 448)
          to label %30 unwind label %33

30:                                               ; preds = %26
  invoke void @__cxa_throw(ptr nonnull %29, ptr nonnull @_ZTIN5faiss14FaissExceptionE, ptr nonnull @_ZN5faiss14FaissExceptionD2Ev) #24
          to label %70 unwind label %31

31:                                               ; preds = %30, %24, %20
  %32 = landingpad { ptr, i32 }
          cleanup
  br label %69

33:                                               ; preds = %26
  %34 = landingpad { ptr, i32 }
          cleanup
  call void @__cxa_free_exception(ptr %29) #12
  br label %69

35:                                               ; preds = %7
  %36 = icmp sgt i64 %3, 0
  br i1 %36, label %52, label %37

37:                                               ; preds = %35
  call void @_ZNSt7__cxx1112basic_stringIcSt11char_traitsIcESaIcEEC1Ev(ptr noundef nonnull align 8 dereferenceable(32) %14) #12
  %38 = call i32 (ptr, i64, ptr, ...) @snprintf(ptr noundef null, i64 noundef 0, ptr noundef nonnull @.str.5, ptr noundef nonnull @.str.6) #12
  %39 = add nsw i32 %38, 1
  %40 = sext i32 %39 to i64
  invoke void @_ZNSt7__cxx1112basic_stringIcSt11char_traitsIcESaIcEE6resizeEm(ptr noundef nonnull align 8 dereferenceable(32) %14, i64 noundef %40)
          to label %41 unwind label %48

41:                                               ; preds = %37
  %42 = invoke noundef nonnull align 1 dereferenceable(1) ptr @_ZNSt7__cxx1112basic_stringIcSt11char_traitsIcESaIcEEixEm(ptr noundef nonnull align 8 dereferenceable(32) %14, i64 noundef 0)
          to label %43 unwind label %48

43:                                               ; preds = %41
  %44 = call noundef i64 @_ZNKSt7__cxx1112basic_stringIcSt11char_traitsIcESaIcEE4sizeEv(ptr noundef nonnull align 8 dereferenceable(32) %14) #12
  %45 = call i32 (ptr, i64, ptr, ...) @snprintf(ptr noundef nonnull %42, i64 noundef %44, ptr noundef nonnull @.str.5, ptr noundef nonnull @.str.6) #12
  %46 = call ptr @__cxa_allocate_exception(i64 40) #12
  invoke void @_ZN5faiss14FaissExceptionC1ERKNSt7__cxx1112basic_stringIcSt11char_traitsIcESaIcEEEPKcSA_i(ptr noundef nonnull align 8 dereferenceable(40) %46, ptr noundef nonnull align 8 dereferenceable(32) %14, ptr noundef nonnull @__PRETTY_FUNCTION__._ZNK5faiss20IndexBinaryMultiHash6searchElPKhlPiPlPKNS_16SearchParametersE, ptr noundef nonnull @.str.4, i32 noundef 449)
          to label %47 unwind label %50

47:                                               ; preds = %43
  invoke void @__cxa_throw(ptr nonnull %46, ptr nonnull @_ZTIN5faiss14FaissExceptionE, ptr nonnull @_ZN5faiss14FaissExceptionD2Ev) #24
          to label %70 unwind label %48

48:                                               ; preds = %47, %41, %37
  %49 = landingpad { ptr, i32 }
          cleanup
  br label %69

50:                                               ; preds = %43
  %51 = landingpad { ptr, i32 }
          cleanup
  call void @__cxa_free_exception(ptr %46) #12
  br label %69

52:                                               ; preds = %35
  store i64 0, ptr %15, align 8
  store i64 0, ptr %16, align 8
  store i64 0, ptr %17, align 8
  %53 = icmp sgt i64 %1, 100
  br i1 %53, label %54, label %55

54:                                               ; preds = %52
  call void (ptr, i32, ptr, ...) @__kmpc_fork_call(ptr nonnull @4, i32 9, ptr nonnull @_ZNK5faiss20IndexBinaryMultiHash6searchElPKhlPiPlPKNS_16SearchParametersE.omp_outlined, ptr nonnull %8, ptr nonnull %11, ptr nonnull %10, ptr nonnull %12, ptr nonnull %9, ptr nonnull %0, ptr nonnull %17, ptr nonnull %15, ptr nonnull %16)
  %.pre = load i64, ptr %8, align 8
  br label %56

55:                                               ; preds = %52
  tail call void @__kmpc_serialized_parallel(ptr nonnull @4, i32 %19)
  store i32 %19, ptr %18, align 4
  call void @_ZNK5faiss20IndexBinaryMultiHash6searchElPKhlPiPlPKNS_16SearchParametersE.omp_outlined(ptr nonnull %18, ptr nonnull poison, ptr %8, ptr %11, ptr %10, ptr %12, ptr %9, ptr nonnull %0, ptr %17, ptr %15, ptr %16) #12
  tail call void @__kmpc_end_serialized_parallel(ptr nonnull @4, i32 %19)
  br label %56

56:                                               ; preds = %55, %54
  %57 = phi i64 [ %1, %55 ], [ %.pre, %54 ]
  %58 = load i64, ptr @_ZN5faiss21indexBinaryHash_statsE, align 8
  %59 = add i64 %58, %57
  store i64 %59, ptr @_ZN5faiss21indexBinaryHash_statsE, align 8
  %60 = load i64, ptr %17, align 8
  %61 = load i64, ptr getelementptr inbounds (%"struct.faiss::IndexBinaryHashStats", ptr @_ZN5faiss21indexBinaryHash_statsE, i64 0, i32 1), align 8
  %62 = add i64 %61, %60
  store i64 %62, ptr getelementptr inbounds (%"struct.faiss::IndexBinaryHashStats", ptr @_ZN5faiss21indexBinaryHash_statsE, i64 0, i32 1), align 8
  %63 = load i64, ptr %15, align 8
  %64 = load i64, ptr getelementptr inbounds (%"struct.faiss::IndexBinaryHashStats", ptr @_ZN5faiss21indexBinaryHash_statsE, i64 0, i32 2), align 8
  %65 = add i64 %64, %63
  store i64 %65, ptr getelementptr inbounds (%"struct.faiss::IndexBinaryHashStats", ptr @_ZN5faiss21indexBinaryHash_statsE, i64 0, i32 2), align 8
  %66 = load i64, ptr %16, align 8
  %67 = load i64, ptr getelementptr inbounds (%"struct.faiss::IndexBinaryHashStats", ptr @_ZN5faiss21indexBinaryHash_statsE, i64 0, i32 3), align 8
  %68 = add i64 %67, %66
  store i64 %68, ptr getelementptr inbounds (%"struct.faiss::IndexBinaryHashStats", ptr @_ZN5faiss21indexBinaryHash_statsE, i64 0, i32 3), align 8
  ret void

69:                                               ; preds = %48, %50, %31, %33
  %.sink = phi ptr [ %13, %33 ], [ %13, %31 ], [ %14, %50 ], [ %14, %48 ]
  %.pn9.pn = phi { ptr, i32 } [ %34, %33 ], [ %32, %31 ], [ %51, %50 ], [ %49, %48 ]
  call void @_ZNSt7__cxx1112basic_stringIcSt11char_traitsIcESaIcEED1Ev(ptr noundef nonnull align 8 dereferenceable(32) %.sink) #12
  resume { ptr, i32 } %.pn9.pn

70:                                               ; preds = %47, %30
  unreachable
}